; Function Attrs: nounwind uwtable
define internal i32 @asn1_bio_gets(ptr noundef readonly captures(none) %0, ptr noundef %1, i32 noundef %2) #1 {
  %4 = getelementptr inbounds nuw i8, ptr %0, i64 56
  %5 = load ptr, ptr %4, align 8, !tbaa !13
  %.not = icmp eq ptr %5, null
  br i1 %.not, label %8, label %6

6:                                                ; preds = %3
  %7 = tail call i32 @BIO_gets(ptr noundef nonnull %5, ptr noundef %1, i32 noundef %2) #11
  br label %8

8:                                                ; preds = %3, %6
  %.0 = phi i32 [ %7, %6 ], [ 0, %3 ]
  ret i32 %.0
}